target datalayout = "e-m:e-p270:32:32-p271:32:32-p272:64:64-i64:64-i128:128-f80:128-n8:16:32:64-S128"
target triple = "x86_64-pc-linux-gnu"

; Function Attrs: nounwind uwtable
define dso_local i32 @uv_pipe(ptr noundef %0, i32 noundef %1, i32 noundef %2) #0 {
  %4 = alloca i32, align 4
  %5 = alloca ptr, align 8
  %6 = alloca i32, align 4
  %7 = alloca i32, align 4
  %8 = alloca [2 x i32], align 4
  %9 = alloca i32, align 4
  %10 = alloca i32, align 4
  %11 = alloca i32, align 4
  store ptr %0, ptr %5, align 8
  store i32 %1, ptr %6, align 4
  store i32 %2, ptr %7, align 4
  call void @llvm.lifetime.start.p0(i64 8, ptr %8) #10
  call void @llvm.lifetime.start.p0(i64 4, ptr %9) #10
  call void @llvm.lifetime.start.p0(i64 4, ptr %10) #10
  store i32 524288, ptr %10, align 4
  %12 = load i32, ptr %6, align 4
  %13 = and i32 %12, 64
  %14 = icmp ne i32 %13, 0
  br i1 %14, label %15, label %22

15:                                               ; preds = %3
  %16 = load i32, ptr %7, align 4
  %17 = and i32 %16, 64
  %18 = icmp ne i32 %17, 0
  br i1 %18, label %19, label %22

19:                                               ; preds = %15
  %20 = load i32, ptr %10, align 4
  %21 = or i32 %20, 2048
  store i32 %21, ptr %10, align 4
  br label %22

22:                                               ; preds = %19, %15, %3
  %23 = getelementptr inbounds [2 x i32], ptr %8, i64 0, i64 0
  %24 = load i32, ptr %10, align 4
  %25 = call i32 @pipe2(ptr noundef %23, i32 noundef %24) #10
  %26 = icmp ne i32 %25, 0
  br i1 %26, label %27, label %31

27:                                               ; preds = %22
  %28 = call ptr @__errno_location() #11
  %29 = load i32, ptr %28, align 4
  %30 = sub nsw i32 0, %29
  store i32 %30, ptr %4, align 4
  store i32 1, ptr %11, align 4
  br label %83

31:                                               ; preds = %22
  %32 = load i32, ptr %10, align 4
  %33 = and i32 %32, 2048
  %34 = icmp ne i32 %33, 0
  br i1 %34, label %35, label %44

35:                                               ; preds = %31
  %36 = getelementptr inbounds [2 x i32], ptr %8, i64 0, i64 0
  %37 = load i32, ptr %36, align 4
  %38 = load ptr, ptr %5, align 8
  %39 = getelementptr inbounds i32, ptr %38, i64 0
  store i32 %37, ptr %39, align 4
  %40 = getelementptr inbounds [2 x i32], ptr %8, i64 0, i64 1
  %41 = load i32, ptr %40, align 4
  %42 = load ptr, ptr %5, align 8
  %43 = getelementptr inbounds i32, ptr %42, i64 1
  store i32 %41, ptr %43, align 4
  store i32 0, ptr %4, align 4
  store i32 1, ptr %11, align 4
  br label %83

44:                                               ; preds = %31
  %45 = load i32, ptr %6, align 4
  %46 = and i32 %45, 64
  %47 = icmp ne i32 %46, 0
  br i1 %47, label %48, label %55

48:                                               ; preds = %44
  %49 = getelementptr inbounds [2 x i32], ptr %8, i64 0, i64 0
  %50 = load i32, ptr %49, align 4
  %51 = call i32 @uv__nonblock_ioctl(i32 noundef %50, i32 noundef 1)
  store i32 %51, ptr %9, align 4
  %52 = icmp ne i32 %51, 0
  br i1 %52, label %53, label %54

53:                                               ; preds = %48
  br label %75

54:                                               ; preds = %48
  br label %55

55:                                               ; preds = %54, %44
  %56 = load i32, ptr %7, align 4
  %57 = and i32 %56, 64
  %58 = icmp ne i32 %57, 0
  br i1 %58, label %59, label %66

59:                                               ; preds = %55
  %60 = getelementptr inbounds [2 x i32], ptr %8, i64 0, i64 1
  %61 = load i32, ptr %60, align 4
  %62 = call i32 @uv__nonblock_ioctl(i32 noundef %61, i32 noundef 1)
  store i32 %62, ptr %9, align 4
  %63 = icmp ne i32 %62, 0
  br i1 %63, label %64, label %65

64:                                               ; preds = %59
  br label %75

65:                                               ; preds = %59
  br label %66

66:                                               ; preds = %65, %55
  %67 = getelementptr inbounds [2 x i32], ptr %8, i64 0, i64 0
  %68 = load i32, ptr %67, align 4
  %69 = load ptr, ptr %5, align 8
  %70 = getelementptr inbounds i32, ptr %69, i64 0
  store i32 %68, ptr %70, align 4
  %71 = getelementptr inbounds [2 x i32], ptr %8, i64 0, i64 1
  %72 = load i32, ptr %71, align 4
  %73 = load ptr, ptr %5, align 8
  %74 = getelementptr inbounds i32, ptr %73, i64 1
  store i32 %72, ptr %74, align 4
  store i32 0, ptr %4, align 4
  store i32 1, ptr %11, align 4
  br label %83

75:                                               ; preds = %64, %53
  %76 = getelementptr inbounds [2 x i32], ptr %8, i64 0, i64 0
  %77 = load i32, ptr %76, align 4
  %78 = call i32 @uv__close(i32 noundef %77)
  %79 = getelementptr inbounds [2 x i32], ptr %8, i64 0, i64 1
  %80 = load i32, ptr %79, align 4
  %81 = call i32 @uv__close(i32 noundef %80)
  %82 = load i32, ptr %9, align 4
  store i32 %82, ptr %4, align 4
  store i32 1, ptr %11, align 4
  br label %83

83:                                               ; preds = %75, %66, %35, %27
  call void @llvm.lifetime.end.p0(i64 4, ptr %10) #10
  call void @llvm.lifetime.end.p0(i64 4, ptr %9) #10
  call void @llvm.lifetime.end.p0(i64 8, ptr %8) #10
  %84 = load i32, ptr %4, align 4
  ret i32 %84
}